; Function Attrs: nounwind uwtable
define noalias nonnull ptr @l_Lean_Compiler_LCNF_Pass_mkPerDeclaration___boxed(ptr noundef %0, ptr noundef %1, ptr noundef %2, ptr noundef %3) local_unnamed_addr #1 {
  %5 = ptrtoint ptr %2 to i64
  %6 = and i64 %5, 1
  %.not = icmp eq i64 %6, 0
  br i1 %.not, label %7, label %lean_dec.exit

7:                                                ; preds = %4
  %8 = load i32, ptr %2, align 4, !tbaa !4
  %9 = icmp sgt i32 %8, 1
  br i1 %9, label %10, label %12, !prof !9

10:                                               ; preds = %7
  %11 = add nsw i32 %8, -1
  store i32 %11, ptr %2, align 4, !tbaa !4
  br label %lean_dec.exit

12:                                               ; preds = %7
  %.not.i = icmp eq i32 %8, 0
  br i1 %.not.i, label %lean_dec.exit, label %13

13:                                               ; preds = %12
  tail call void @lean_dec_ref_cold(ptr noundef nonnull %2) #6
  br label %lean_dec.exit

lean_dec.exit:                                    ; preds = %13, %12, %10, %4
  tail call void @lean_inc_heartbeat() #6
  %14 = tail call noalias ptr @mi_malloc_small(i64 noundef 32) #6
  %15 = icmp eq ptr %14, null
  br i1 %15, label %16, label %lean_alloc_closure.exit.i

16:                                               ; preds = %lean_dec.exit
  tail call void @lean_internal_panic_out_of_memory() #7
  unreachable

lean_alloc_closure.exit.i:                        ; preds = %lean_dec.exit
  %17 = getelementptr inbounds nuw i8, ptr %14, i64 4
  store i32 1, ptr %14, align 4, !tbaa !4
  store i32 -184549344, ptr %17, align 4
  %18 = getelementptr inbounds nuw i8, ptr %14, i64 8
  store ptr @l_Lean_Compiler_LCNF_Pass_mkPerDeclaration___elambda__1, ptr %18, align 8, !tbaa !10
  %19 = getelementptr inbounds nuw i8, ptr %14, i64 16
  store i16 7, ptr %19, align 8, !tbaa !14
  %20 = getelementptr inbounds nuw i8, ptr %14, i64 18
  store i16 1, ptr %20, align 2, !tbaa !14
  %21 = getelementptr inbounds nuw i8, ptr %14, i64 24
  store ptr %1, ptr %21, align 8, !tbaa !10
  tail call void @lean_inc_heartbeat() #6
  %22 = tail call noalias ptr @mi_malloc_small(i64 noundef 40) #6
  %23 = icmp eq ptr %22, null
  br i1 %23, label %24, label %l_Lean_Compiler_LCNF_Pass_mkPerDeclaration.exit

24:                                               ; preds = %lean_alloc_closure.exit.i
  tail call void @lean_internal_panic_out_of_memory() #7
  unreachable

l_Lean_Compiler_LCNF_Pass_mkPerDeclaration.exit:  ; preds = %lean_alloc_closure.exit.i
  %25 = lshr i64 %5, 1
  %26 = trunc i64 %25 to i8
  %27 = getelementptr inbounds nuw i8, ptr %22, i64 4
  %28 = getelementptr inbounds nuw i8, ptr %22, i64 32
  store i64 0, ptr %28, align 8, !tbaa !12
  store i32 1, ptr %22, align 4, !tbaa !4
  store i32 196648, ptr %27, align 4
  %29 = getelementptr inbounds nuw i8, ptr %22, i64 8
  store ptr %3, ptr %29, align 8, !tbaa !10
  %30 = getelementptr inbounds nuw i8, ptr %22, i64 16
  store ptr %0, ptr %30, align 8, !tbaa !10
  %31 = getelementptr inbounds nuw i8, ptr %22, i64 24
  store ptr %14, ptr %31, align 8, !tbaa !10
  store i8 %26, ptr %28, align 1, !tbaa !16
  %32 = getelementptr inbounds nuw i8, ptr %22, i64 33
  store i8 %26, ptr %32, align 1, !tbaa !16
  ret ptr %22
}